target datalayout = "e-m:e-p270:32:32-p271:32:32-p272:64:64-i64:64-i128:128-f80:128-n8:16:32:64-S128"
target triple = "x86_64-pc-linux-gnu"

%struct.passwd = type { ptr, ptr, i32, i32, ptr, ptr, ptr }

@.str.1 = private unnamed_addr constant [5 x i8] c"HOME\00", align 1

; Function Attrs: nounwind uwtable
define ptr @dt_loc_get_home_dir(ptr noundef %0) #0 {
  %2 = alloca ptr, align 8
  %3 = alloca ptr, align 8
  %4 = alloca ptr, align 8
  %5 = alloca %struct.passwd, align 8
  %6 = alloca ptr, align 8
  %7 = alloca i32, align 4
  %8 = alloca ptr, align 8
  %9 = alloca i32, align 4
  %10 = alloca ptr, align 8
  store ptr %0, ptr %3, align 8, !tbaa !6
  %11 = load ptr, ptr %3, align 8, !tbaa !6
  %12 = icmp eq ptr %11, null
  br i1 %12, label %18, label %13

13:                                               ; preds = %1
  %14 = load ptr, ptr %3, align 8, !tbaa !6
  %15 = call ptr @g_get_user_name()
  %16 = call i32 @g_strcmp0(ptr noundef %14, ptr noundef %15)
  %17 = icmp eq i32 %16, 0
  br i1 %17, label %18, label %29

18:                                               ; preds = %13, %1
  call void @llvm.lifetime.start.p0(i64 8, ptr %4) #10
  %19 = call ptr @g_getenv(ptr noundef @.str.1)
  store ptr %19, ptr %4, align 8, !tbaa !6
  %20 = load ptr, ptr %4, align 8, !tbaa !6
  %21 = icmp ne ptr %20, null
  br i1 %21, label %22, label %24

22:                                               ; preds = %18
  %23 = load ptr, ptr %4, align 8, !tbaa !6
  br label %26

24:                                               ; preds = %18
  %25 = call ptr @g_get_home_dir()
  br label %26

26:                                               ; preds = %24, %22
  %27 = phi ptr [ %23, %22 ], [ %25, %24 ]
  %28 = call noalias ptr @g_strdup(ptr noundef %27)
  store ptr %28, ptr %2, align 8
  call void @llvm.lifetime.end.p0(i64 8, ptr %4) #10
  br label %59

29:                                               ; preds = %13
  call void @llvm.lifetime.start.p0(i64 48, ptr %5) #10
  call void @llvm.lifetime.start.p0(i64 8, ptr %6) #10
  call void @llvm.lifetime.start.p0(i64 4, ptr %7) #10
  %30 = call i64 @sysconf(i32 noundef 70) #10
  %31 = trunc i64 %30 to i32
  store i32 %31, ptr %7, align 4, !tbaa !11
  %32 = load i32, ptr %7, align 4, !tbaa !11
  %33 = icmp slt i32 %32, 0
  br i1 %33, label %34, label %35

34:                                               ; preds = %29
  store i32 4096, ptr %7, align 4, !tbaa !11
  br label %35

35:                                               ; preds = %34, %29
  call void @llvm.lifetime.start.p0(i64 8, ptr %8) #10
  %36 = load i32, ptr %7, align 4, !tbaa !11
  %37 = sext i32 %36 to i64
  %38 = call noalias ptr @g_malloc0_n(i64 noundef %37, i64 noundef 1) #12
  store ptr %38, ptr %8, align 8, !tbaa !6
  %39 = load ptr, ptr %8, align 8, !tbaa !6
  %40 = icmp eq ptr %39, null
  br i1 %40, label %41, label %42

41:                                               ; preds = %35
  store ptr null, ptr %2, align 8
  store i32 1, ptr %9, align 4
  br label %58

42:                                               ; preds = %35
  %43 = load ptr, ptr %3, align 8, !tbaa !6
  %44 = load ptr, ptr %8, align 8, !tbaa !6
  %45 = load i32, ptr %7, align 4, !tbaa !11
  %46 = sext i32 %45 to i64
  %47 = call i32 @getpwnam_r(ptr noundef %43, ptr noundef %5, ptr noundef %44, i64 noundef %46, ptr noundef %6)
  %48 = load ptr, ptr %6, align 8, !tbaa !58
  %49 = icmp eq ptr %48, null
  br i1 %49, label %50, label %52

50:                                               ; preds = %42
  %51 = load ptr, ptr %8, align 8, !tbaa !6
  call void @g_free(ptr noundef %51)
  store ptr null, ptr %2, align 8
  store i32 1, ptr %9, align 4
  br label %58

52:                                               ; preds = %42
  call void @llvm.lifetime.start.p0(i64 8, ptr %10) #10
  %53 = getelementptr inbounds nuw %struct.passwd, ptr %5, i32 0, i32 5
  %54 = load ptr, ptr %53, align 8, !tbaa !60
  %55 = call noalias ptr @g_strdup(ptr noundef %54)
  store ptr %55, ptr %10, align 8, !tbaa !6
  %56 = load ptr, ptr %8, align 8, !tbaa !6
  call void @g_free(ptr noundef %56)
  %57 = load ptr, ptr %10, align 8, !tbaa !6
  store ptr %57, ptr %2, align 8
  store i32 1, ptr %9, align 4
  call void @llvm.lifetime.end.p0(i64 8, ptr %10) #10
  br label %58

58:                                               ; preds = %52, %50, %41
  call void @llvm.lifetime.end.p0(i64 8, ptr %8) #10
  call void @llvm.lifetime.end.p0(i64 4, ptr %7) #10
  call void @llvm.lifetime.end.p0(i64 8, ptr %6) #10
  call void @llvm.lifetime.end.p0(i64 48, ptr %5) #10
  br label %59

59:                                               ; preds = %58, %26
  %60 = load ptr, ptr %2, align 8
  ret ptr %60
}