; Function Attrs: nounwind uwtable
define noalias ptr @dt_loc_get_home_dir(ptr noundef %0) local_unnamed_addr #0 {
  %2 = alloca %struct.passwd, align 8
  %3 = alloca ptr, align 8
  %4 = icmp eq ptr %0, null
  br i1 %4, label %9, label %5

5:                                                ; preds = %1
  %6 = tail call ptr @g_get_user_name() #11
  %7 = tail call i32 @g_strcmp0(ptr noundef nonnull %0, ptr noundef %6) #11
  %8 = icmp eq i32 %7, 0
  br i1 %8, label %9, label %16

9:                                                ; preds = %5, %1
  %10 = tail call ptr @g_getenv(ptr noundef nonnull @.str.1) #11
  %.not16 = icmp eq ptr %10, null
  br i1 %.not16, label %11, label %13

11:                                               ; preds = %9
  %12 = tail call ptr @g_get_home_dir() #11
  br label %13

13:                                               ; preds = %9, %11
  %14 = phi ptr [ %12, %11 ], [ %10, %9 ]
  %15 = tail call noalias ptr @g_strdup(ptr noundef %14) #11
  br label %33

16:                                               ; preds = %5
  call void @llvm.lifetime.start.p0(i64 48, ptr nonnull %2) #11
  call void @llvm.lifetime.start.p0(i64 8, ptr nonnull %3) #11
  %17 = tail call i64 @sysconf(i32 noundef 70) #11
  %18 = and i64 %17, 2147483648
  %.not = icmp eq i64 %18, 0
  %19 = shl i64 %17, 32
  %20 = ashr exact i64 %19, 32
  %21 = select i1 %.not, i64 %20, i64 4096
  %22 = tail call noalias ptr @g_malloc0_n(i64 noundef %21, i64 noundef 1) #13
  %23 = icmp eq ptr %22, null
  br i1 %23, label %32, label %24

24:                                               ; preds = %16
  %25 = call i32 @getpwnam_r(ptr noundef nonnull %0, ptr noundef nonnull %2, ptr noundef nonnull %22, i64 noundef %21, ptr noundef nonnull %3) #11
  %26 = load ptr, ptr %3, align 8, !tbaa !57
  %27 = icmp eq ptr %26, null
  br i1 %27, label %.sink.split, label %28

28:                                               ; preds = %24
  %29 = getelementptr inbounds nuw i8, ptr %2, i64 32
  %30 = load ptr, ptr %29, align 8, !tbaa !59
  %31 = call noalias ptr @g_strdup(ptr noundef %30) #11
  br label %.sink.split

.sink.split:                                      ; preds = %24, %28
  %.1.ph = phi ptr [ %31, %28 ], [ null, %24 ]
  call void @g_free(ptr noundef nonnull %22) #11
  br label %32

32:                                               ; preds = %.sink.split, %16
  %.1 = phi ptr [ null, %16 ], [ %.1.ph, %.sink.split ]
  call void @llvm.lifetime.end.p0(i64 8, ptr nonnull %3) #11
  call void @llvm.lifetime.end.p0(i64 48, ptr nonnull %2) #11
  br label %33

33:                                               ; preds = %32, %13
  %.0 = phi ptr [ %15, %13 ], [ %.1, %32 ]
  ret ptr %.0
}